; Function Attrs: nounwind uwtable
define hidden void @_ir_TAILCALL_4(ptr nocapture noundef %0, i32 noundef %1, i32 noundef %2, i32 noundef %3, i32 noundef %4, i32 noundef %5, i32 noundef %6) local_unnamed_addr #0 {
  %8 = getelementptr inbounds i8, ptr %0, i64 32
  %9 = load i32, ptr %8, align 8
  %10 = icmp eq i32 %9, -1
  br i1 %10, label %11, label %12

11:                                               ; preds = %7
  store i32 %1, ptr %8, align 8
  br label %12

12:                                               ; preds = %11, %7
  %13 = shl i32 %1, 8
  %14 = and i32 %13, 16383744
  %15 = getelementptr inbounds i8, ptr %0, i64 8
  %16 = load i32, ptr %15, align 8
  %17 = add nsw i32 %16, 1
  %18 = getelementptr inbounds i8, ptr %0, i64 12
  %19 = load i32, ptr %18, align 4
  %.not22.i = icmp slt i32 %17, %19
  %.pre30.i = load ptr, ptr %0, align 8
  br i1 %.not22.i, label %ir_emit_N.exit, label %.lr.ph.i

.lr.ph.i:                                         ; preds = %12
  %20 = getelementptr inbounds i8, ptr %0, i64 20
  %.pre29.i = load i32, ptr %20, align 4
  br label %21

21:                                               ; preds = %21, %.lr.ph.i
  %22 = phi i32 [ %.pre29.i, %.lr.ph.i ], [ %36, %21 ]
  %23 = phi ptr [ %.pre30.i, %.lr.ph.i ], [ %38, %21 ]
  %24 = phi i32 [ %19, %.lr.ph.i ], [ %39, %21 ]
  %25 = icmp slt i32 %24, 4096
  %26 = shl nsw i32 %24, 1
  %27 = icmp ult i32 %24, 8192
  %28 = add nuw nsw i32 %24, 4096
  %spec.select.i.i = select i1 %27, i32 8192, i32 %28
  %.sink.i.i = select i1 %25, i32 %26, i32 %spec.select.i.i
  store i32 %.sink.i.i, ptr %18, align 4
  %29 = sext i32 %22 to i64
  %30 = sub nsw i64 0, %29
  %31 = getelementptr inbounds %struct._ir_insn, ptr %23, i64 %30
  %32 = add nsw i32 %.sink.i.i, %22
  %33 = sext i32 %32 to i64
  %34 = shl nsw i64 %33, 4
  %35 = tail call ptr @_erealloc(ptr noundef %31, i64 noundef %34) #24
  %36 = load i32, ptr %20, align 4
  %37 = sext i32 %36 to i64
  %38 = getelementptr inbounds %struct._ir_insn, ptr %35, i64 %37
  store ptr %38, ptr %0, align 8
  %39 = load i32, ptr %18, align 4
  %.not.i = icmp slt i32 %17, %39
  br i1 %.not.i, label %ir_emit_N.exit, label %21

ir_emit_N.exit:                                   ; preds = %21, %12
  %40 = phi ptr [ %.pre30.i, %12 ], [ %38, %21 ]
  %41 = add i32 %16, 2
  store i32 %41, ptr %15, align 8
  %42 = sext i32 %16 to i64
  %43 = getelementptr inbounds %struct._ir_insn, ptr %40, i64 %42
  %44 = or disjoint i32 %14, 393286
  store i32 %44, ptr %43, align 8
  %45 = shl nsw i64 %42, 4
  %46 = or disjoint i64 %45, 4
  %scevgep.i = getelementptr i8, ptr %40, i64 %46
  tail call void @llvm.memset.p0.i64(ptr noundef nonnull align 4 dereferenceable(28) %scevgep.i, i8 0, i64 28, i1 false)
  %47 = getelementptr inbounds i8, ptr %0, i64 248
  %48 = load i32, ptr %47, align 8
  %49 = load ptr, ptr %0, align 8
  %50 = getelementptr inbounds %struct._ir_insn, ptr %49, i64 %42, i32 0, i32 1
  store i32 %48, ptr %50, align 4
  %51 = load ptr, ptr %0, align 8
  %52 = getelementptr inbounds %struct._ir_insn, ptr %51, i64 %42, i32 1
  store i32 %2, ptr %52, align 4
  %53 = load ptr, ptr %0, align 8
  %54 = getelementptr inbounds %struct._ir_insn, ptr %53, i64 %42
  %55 = getelementptr inbounds i8, ptr %54, i64 12
  store i32 %3, ptr %55, align 4
  %56 = load ptr, ptr %0, align 8
  %57 = getelementptr inbounds %struct._ir_insn, ptr %56, i64 %42
  %58 = getelementptr inbounds i8, ptr %57, i64 16
  store i32 %4, ptr %58, align 4
  %59 = load ptr, ptr %0, align 8
  %60 = getelementptr inbounds %struct._ir_insn, ptr %59, i64 %42
  %61 = getelementptr inbounds i8, ptr %60, i64 20
  store i32 %5, ptr %61, align 4
  %62 = load ptr, ptr %0, align 8
  %63 = getelementptr inbounds %struct._ir_insn, ptr %62, i64 %42
  %64 = getelementptr inbounds i8, ptr %63, i64 24
  store i32 %6, ptr %64, align 4
  store i32 %16, ptr %47, align 8
  %65 = load ptr, ptr %0, align 8
  %66 = getelementptr inbounds i8, ptr %65, i64 20
  %67 = load i32, ptr %66, align 4
  %68 = load i32, ptr %15, align 8
  %69 = load i32, ptr %18, align 4
  %.not.i.i.i.i = icmp slt i32 %68, %69
  br i1 %.not.i.i.i.i, label %_ir_UNREACHABLE.exit, label %70

70:                                               ; preds = %ir_emit_N.exit
  %71 = getelementptr inbounds i8, ptr %0, i64 20
  %72 = load i32, ptr %71, align 4
  %73 = icmp slt i32 %69, 4096
  %74 = shl nsw i32 %69, 1
  %75 = icmp ult i32 %69, 8192
  %76 = add nuw nsw i32 %69, 4096
  %spec.select.i.i.i.i.i = select i1 %75, i32 8192, i32 %76
  %.sink.i.i.i.i.i = select i1 %73, i32 %74, i32 %spec.select.i.i.i.i.i
  store i32 %.sink.i.i.i.i.i, ptr %18, align 4
  %77 = sext i32 %72 to i64
  %78 = sub nsw i64 0, %77
  %79 = getelementptr inbounds %struct._ir_insn, ptr %65, i64 %78
  %80 = add nsw i32 %72, %.sink.i.i.i.i.i
  %81 = sext i32 %80 to i64
  %82 = shl nsw i64 %81, 4
  %83 = tail call ptr @_erealloc(ptr noundef %79, i64 noundef %82) #24
  %84 = load i32, ptr %71, align 4
  %85 = sext i32 %84 to i64
  %86 = getelementptr inbounds %struct._ir_insn, ptr %83, i64 %85
  store ptr %86, ptr %0, align 8
  br label %_ir_UNREACHABLE.exit

_ir_UNREACHABLE.exit:                             ; preds = %ir_emit_N.exit, %70
  %87 = phi ptr [ %65, %ir_emit_N.exit ], [ %86, %70 ]
  %88 = add nsw i32 %68, 1
  store i32 %88, ptr %15, align 8
  %89 = sext i32 %68 to i64
  %90 = getelementptr inbounds %struct._ir_insn, ptr %87, i64 %89
  store i32 104, ptr %90, align 8
  %91 = getelementptr inbounds i8, ptr %90, i64 4
  store i32 %16, ptr %91, align 4
  %92 = getelementptr inbounds i8, ptr %90, i64 8
  store i32 0, ptr %92, align 8
  %93 = getelementptr inbounds i8, ptr %90, i64 12
  store i32 %67, ptr %93, align 4
  %94 = load ptr, ptr %0, align 8
  %95 = getelementptr inbounds i8, ptr %94, i64 20
  store i32 %68, ptr %95, align 4
  store i32 0, ptr %47, align 8
  ret void
}